target datalayout = "e-m:e-p270:32:32-p271:32:32-p272:64:64-i64:64-i128:128-f80:128-n8:16:32:64-S128"
target triple = "x86_64-pc-linux-gnu"

%struct.Cec_ParSat_t_ = type { i32, i32, i32, i32, i32, i32, i32, i32, i32, i32 }

; Function Attrs: nounwind uwtable
define void @Cec_ManSatSetDefaultParams(ptr noundef %0) #0 {
  %2 = alloca ptr, align 8
  store ptr %0, ptr %2, align 8, !tbaa !3
  %3 = load ptr, ptr %2, align 8, !tbaa !3
  call void @llvm.memset.p0.i64(ptr align 4 %3, i8 0, i64 40, i1 false)
  %4 = load ptr, ptr %2, align 8, !tbaa !3
  %5 = getelementptr inbounds nuw %struct.Cec_ParSat_t_, ptr %4, i32 0, i32 0
  store i32 -1, ptr %5, align 4, !tbaa !8
  %6 = load ptr, ptr %2, align 8, !tbaa !3
  %7 = getelementptr inbounds nuw %struct.Cec_ParSat_t_, ptr %6, i32 0, i32 1
  store i32 100, ptr %7, align 4, !tbaa !11
  %8 = load ptr, ptr %2, align 8, !tbaa !3
  %9 = getelementptr inbounds nuw %struct.Cec_ParSat_t_, ptr %8, i32 0, i32 2
  store i32 2000, ptr %9, align 4, !tbaa !12
  %10 = load ptr, ptr %2, align 8, !tbaa !3
  %11 = getelementptr inbounds nuw %struct.Cec_ParSat_t_, ptr %10, i32 0, i32 3
  store i32 200, ptr %11, align 4, !tbaa !13
  %12 = load ptr, ptr %2, align 8, !tbaa !3
  %13 = getelementptr inbounds nuw %struct.Cec_ParSat_t_, ptr %12, i32 0, i32 4
  store i32 1, ptr %13, align 4, !tbaa !14
  %14 = load ptr, ptr %2, align 8, !tbaa !3
  %15 = getelementptr inbounds nuw %struct.Cec_ParSat_t_, ptr %14, i32 0, i32 5
  store i32 1, ptr %15, align 4, !tbaa !15
  %16 = load ptr, ptr %2, align 8, !tbaa !3
  %17 = getelementptr inbounds nuw %struct.Cec_ParSat_t_, ptr %16, i32 0, i32 6
  store i32 0, ptr %17, align 4, !tbaa !16
  %18 = load ptr, ptr %2, align 8, !tbaa !3
  %19 = getelementptr inbounds nuw %struct.Cec_ParSat_t_, ptr %18, i32 0, i32 7
  store i32 0, ptr %19, align 4, !tbaa !17
  %20 = load ptr, ptr %2, align 8, !tbaa !3
  %21 = getelementptr inbounds nuw %struct.Cec_ParSat_t_, ptr %20, i32 0, i32 9
  store i32 0, ptr %21, align 4, !tbaa !18
  ret void
}